target datalayout = "e-m:e-p270:32:32-p271:32:32-p272:64:64-i64:64-i128:128-f80:128-n8:16:32:64-S128"
target triple = "x86_64-pc-linux-gnu"

%struct.CONF_VALUE = type { ptr, ptr, ptr }

@bio_err = external global ptr, align 8
@.str.181 = private unnamed_addr constant [8 x i8] c"default\00", align 1
@.str.245 = private unnamed_addr constant [14 x i8] c"Signature ok\0A\00", align 1
@.str.311 = private unnamed_addr constant [25 x i8] c"error on line %ld of %s\0A\00", align 1
@.str.312 = private unnamed_addr constant [33 x i8] c"no name/value pairs found in %s\0A\00", align 1
@.str.313 = private unnamed_addr constant [6 x i8] c"SPKAC\00", align 1
@.str.314 = private unnamed_addr constant [41 x i8] c"unable to load Netscape SPKAC structure\0A\00", align 1
@.str.315 = private unnamed_addr constant [42 x i8] c"Netscape SPKAC structure not found in %s\0A\00", align 1
@.str.316 = private unnamed_addr constant [52 x i8] c"Check that the SPKAC request matches the signature\0A\00", align 1
@.str.317 = private unnamed_addr constant [34 x i8] c"error unpacking SPKAC public key\0A\00", align 1
@.str.318 = private unnamed_addr constant [51 x i8] c"signature verification failed on SPKAC public key\0A\00", align 1

; Function Attrs: inlinehint nounwind uwtable
define internal ptr @ossl_check_const_CONF_VALUE_sk_type(ptr noundef %0) #5 {
  %2 = alloca ptr, align 8
  store ptr %0, ptr %2, align 8, !tbaa !23
  %3 = load ptr, ptr %2, align 8, !tbaa !23
  ret ptr %3
}

; Function Attrs: nounwind uwtable
define internal i32 @certify_spkac(ptr noundef %0, ptr noundef %1, ptr noundef %2, ptr noundef %3, ptr noundef %4, ptr noundef %5, ptr noundef %6, ptr noundef %7, ptr noundef %8, ptr noundef %9, i64 noundef %10, i32 noundef %11, i32 noundef %12, ptr noundef %13, ptr noundef %14, i64 noundef %15, ptr noundef %16, ptr noundef %17, i32 noundef %18, i64 noundef %19, i64 noundef %20, i32 noundef %21, i32 noundef %22, i64 noundef %23) #0 {
  %25 = alloca ptr, align 8
  %26 = alloca ptr, align 8
  %27 = alloca ptr, align 8
  %28 = alloca ptr, align 8
  %29 = alloca ptr, align 8
  %30 = alloca ptr, align 8
  %31 = alloca ptr, align 8
  %32 = alloca ptr, align 8
  %33 = alloca ptr, align 8
  %34 = alloca ptr, align 8
  %35 = alloca i64, align 8
  %36 = alloca i32, align 4
  %37 = alloca i32, align 4
  %38 = alloca ptr, align 8
  %39 = alloca ptr, align 8
  %40 = alloca i64, align 8
  %41 = alloca ptr, align 8
  %42 = alloca ptr, align 8
  %43 = alloca i32, align 4
  %44 = alloca i64, align 8
  %45 = alloca i64, align 8
  %46 = alloca i32, align 4
  %47 = alloca i32, align 4
  %48 = alloca i64, align 8
  %49 = alloca ptr, align 8
  %50 = alloca ptr, align 8
  %51 = alloca ptr, align 8
  %52 = alloca ptr, align 8
  %53 = alloca ptr, align 8
  %54 = alloca ptr, align 8
  %55 = alloca ptr, align 8
  %56 = alloca ptr, align 8
  %57 = alloca ptr, align 8
  %58 = alloca ptr, align 8
  %59 = alloca i32, align 4
  %60 = alloca i32, align 4
  %61 = alloca i32, align 4
  %62 = alloca i64, align 8
  %63 = alloca i32, align 4
  store ptr %0, ptr %25, align 8, !tbaa !75
  store ptr %1, ptr %26, align 8, !tbaa !31
  store ptr %2, ptr %27, align 8, !tbaa !17
  store ptr %3, ptr %28, align 8, !tbaa !35
  store ptr %4, ptr %29, align 8, !tbaa !31
  store ptr %5, ptr %30, align 8, !tbaa !25
  store ptr %6, ptr %31, align 8, !tbaa !23
  store ptr %7, ptr %32, align 8, !tbaa !21
  store ptr %8, ptr %33, align 8, !tbaa !15
  store ptr %9, ptr %34, align 8, !tbaa !31
  store i64 %10, ptr %35, align 8, !tbaa !33
  store i32 %11, ptr %36, align 4, !tbaa !4
  store i32 %12, ptr %37, align 4, !tbaa !4
  store ptr %13, ptr %38, align 8, !tbaa !31
  store ptr %14, ptr %39, align 8, !tbaa !31
  store i64 %15, ptr %40, align 8, !tbaa !33
  store ptr %16, ptr %41, align 8, !tbaa !31
  store ptr %17, ptr %42, align 8, !tbaa !11
  store i32 %18, ptr %43, align 4, !tbaa !4
  store i64 %19, ptr %44, align 8, !tbaa !33
  store i64 %20, ptr %45, align 8, !tbaa !33
  store i32 %21, ptr %46, align 4, !tbaa !4
  store i32 %22, ptr %47, align 4, !tbaa !4
  store i64 %23, ptr %48, align 8, !tbaa !33
  call void @llvm.lifetime.start.p0(i64 8, ptr %49) #10
  store ptr null, ptr %49, align 8, !tbaa !23
  call void @llvm.lifetime.start.p0(i64 8, ptr %50) #10
  store ptr null, ptr %50, align 8, !tbaa !77
  call void @llvm.lifetime.start.p0(i64 8, ptr %51) #10
  store ptr null, ptr %51, align 8, !tbaa !79
  call void @llvm.lifetime.start.p0(i64 8, ptr %52) #10
  store ptr null, ptr %52, align 8, !tbaa !81
  call void @llvm.lifetime.start.p0(i64 8, ptr %53) #10
  store ptr null, ptr %53, align 8, !tbaa !82
  call void @llvm.lifetime.start.p0(i64 8, ptr %54) #10
  call void @llvm.lifetime.start.p0(i64 8, ptr %55) #10
  call void @llvm.lifetime.start.p0(i64 8, ptr %56) #10
  store ptr null, ptr %56, align 8, !tbaa !17
  call void @llvm.lifetime.start.p0(i64 8, ptr %57) #10
  store ptr null, ptr %57, align 8, !tbaa !84
  call void @llvm.lifetime.start.p0(i64 8, ptr %58) #10
  store ptr null, ptr %58, align 8, !tbaa !86
  call void @llvm.lifetime.start.p0(i64 4, ptr %59) #10
  store i32 -1, ptr %59, align 4, !tbaa !4
  call void @llvm.lifetime.start.p0(i64 4, ptr %60) #10
  call void @llvm.lifetime.start.p0(i64 4, ptr %61) #10
  call void @llvm.lifetime.start.p0(i64 8, ptr %62) #10
  call void @llvm.lifetime.start.p0(i64 4, ptr %63) #10
  %64 = load ptr, ptr %26, align 8, !tbaa !31
  %65 = call ptr @CONF_load(ptr noundef null, ptr noundef %64, ptr noundef %62)
  store ptr %65, ptr %50, align 8, !tbaa !77
  %66 = load ptr, ptr %50, align 8, !tbaa !77
  %67 = icmp eq ptr %66, null
  br i1 %67, label %68, label %73

68:                                               ; preds = %24
  %69 = load ptr, ptr @bio_err, align 8, !tbaa !19
  %70 = load i64, ptr %62, align 8, !tbaa !33
  %71 = load ptr, ptr %26, align 8, !tbaa !31
  %72 = call i32 (ptr, ptr, ...) @BIO_printf(ptr noundef %69, ptr noundef @.str.311, i64 noundef %70, ptr noundef %71)
  br label %236

73:                                               ; preds = %24
  %74 = load ptr, ptr %50, align 8, !tbaa !77
  %75 = call ptr @CONF_get_section(ptr noundef %74, ptr noundef @.str.181)
  store ptr %75, ptr %49, align 8, !tbaa !23
  %76 = load ptr, ptr %49, align 8, !tbaa !23
  %77 = call ptr @ossl_check_const_CONF_VALUE_sk_type(ptr noundef %76)
  %78 = call i32 @OPENSSL_sk_num(ptr noundef %77)
  %79 = icmp eq i32 %78, 0
  br i1 %79, label %80, label %84

80:                                               ; preds = %73
  %81 = load ptr, ptr @bio_err, align 8, !tbaa !19
  %82 = load ptr, ptr %26, align 8, !tbaa !31
  %83 = call i32 (ptr, ptr, ...) @BIO_printf(ptr noundef %81, ptr noundef @.str.312, ptr noundef %82)
  br label %236

84:                                               ; preds = %73
  %85 = call ptr @X509_REQ_new()
  store ptr %85, ptr %51, align 8, !tbaa !79
  %86 = load ptr, ptr %51, align 8, !tbaa !79
  %87 = icmp eq ptr %86, null
  br i1 %87, label %88, label %89

88:                                               ; preds = %84
  br label %236

89:                                               ; preds = %84
  %90 = load ptr, ptr %51, align 8, !tbaa !79
  %91 = call ptr @X509_REQ_get_subject_name(ptr noundef %90)
  store ptr %91, ptr %57, align 8, !tbaa !84
  store i32 0, ptr %60, align 4, !tbaa !4
  br label %92

92:                                               ; preds = %175, %89
  %93 = load ptr, ptr %49, align 8, !tbaa !23
  %94 = call ptr @ossl_check_const_CONF_VALUE_sk_type(ptr noundef %93)
  %95 = call i32 @OPENSSL_sk_num(ptr noundef %94)
  %96 = load i32, ptr %60, align 4, !tbaa !4
  %97 = icmp sle i32 %95, %96
  br i1 %97, label %98, label %99

98:                                               ; preds = %92
  br label %178

99:                                               ; preds = %92
  %100 = load ptr, ptr %49, align 8, !tbaa !23
  %101 = call ptr @ossl_check_const_CONF_VALUE_sk_type(ptr noundef %100)
  %102 = load i32, ptr %60, align 4, !tbaa !4
  %103 = call ptr @OPENSSL_sk_value(ptr noundef %101, i32 noundef %102)
  store ptr %103, ptr %52, align 8, !tbaa !81
  %104 = load ptr, ptr %52, align 8, !tbaa !81
  %105 = getelementptr inbounds nuw %struct.CONF_VALUE, ptr %104, i32 0, i32 1
  %106 = load ptr, ptr %105, align 8, !tbaa !88
  store ptr %106, ptr %54, align 8, !tbaa !31
  %107 = load ptr, ptr %52, align 8, !tbaa !81
  %108 = getelementptr inbounds nuw %struct.CONF_VALUE, ptr %107, i32 0, i32 1
  %109 = load ptr, ptr %108, align 8, !tbaa !88
  store ptr %109, ptr %55, align 8, !tbaa !31
  br label %110

110:                                              ; preds = %139, %99
  %111 = load ptr, ptr %55, align 8, !tbaa !31
  %112 = load i8, ptr %111, align 1, !tbaa !43
  %113 = icmp ne i8 %112, 0
  br i1 %113, label %114, label %142

114:                                              ; preds = %110
  %115 = load ptr, ptr %55, align 8, !tbaa !31
  %116 = load i8, ptr %115, align 1, !tbaa !43
  %117 = sext i8 %116 to i32
  %118 = icmp eq i32 %117, 58
  br i1 %118, label %129, label %119

119:                                              ; preds = %114
  %120 = load ptr, ptr %55, align 8, !tbaa !31
  %121 = load i8, ptr %120, align 1, !tbaa !43
  %122 = sext i8 %121 to i32
  %123 = icmp eq i32 %122, 44
  br i1 %123, label %129, label %124

124:                                              ; preds = %119
  %125 = load ptr, ptr %55, align 8, !tbaa !31
  %126 = load i8, ptr %125, align 1, !tbaa !43
  %127 = sext i8 %126 to i32
  %128 = icmp eq i32 %127, 46
  br i1 %128, label %129, label %138

129:                                              ; preds = %124, %119, %114
  %130 = load ptr, ptr %55, align 8, !tbaa !31
  %131 = getelementptr inbounds nuw i8, ptr %130, i32 1
  store ptr %131, ptr %55, align 8, !tbaa !31
  %132 = load ptr, ptr %55, align 8, !tbaa !31
  %133 = load i8, ptr %132, align 1, !tbaa !43
  %134 = icmp ne i8 %133, 0
  br i1 %134, label %135, label %137

135:                                              ; preds = %129
  %136 = load ptr, ptr %55, align 8, !tbaa !31
  store ptr %136, ptr %54, align 8, !tbaa !31
  br label %137

137:                                              ; preds = %135, %129
  br label %142

138:                                              ; preds = %124
  br label %139

139:                                              ; preds = %138
  %140 = load ptr, ptr %55, align 8, !tbaa !31
  %141 = getelementptr inbounds nuw i8, ptr %140, i32 1
  store ptr %141, ptr %55, align 8, !tbaa !31
  br label %110, !llvm.loop !90

142:                                              ; preds = %137, %110
  %143 = load ptr, ptr %52, align 8, !tbaa !81
  %144 = getelementptr inbounds nuw %struct.CONF_VALUE, ptr %143, i32 0, i32 2
  %145 = load ptr, ptr %144, align 8, !tbaa !91
  store ptr %145, ptr %55, align 8, !tbaa !31
  %146 = load ptr, ptr %54, align 8, !tbaa !31
  %147 = call i32 @OBJ_txt2nid(ptr noundef %146)
  store i32 %147, ptr %63, align 4, !tbaa !4
  %148 = icmp eq i32 %147, 0
  br i1 %148, label %149, label %165

149:                                              ; preds = %142
  %150 = load ptr, ptr %54, align 8, !tbaa !31
  %151 = call i32 @strcmp(ptr noundef %150, ptr noundef @.str.313) #11
  %152 = icmp eq i32 %151, 0
  br i1 %152, label %153, label %164

153:                                              ; preds = %149
  %154 = load ptr, ptr %52, align 8, !tbaa !81
  %155 = getelementptr inbounds nuw %struct.CONF_VALUE, ptr %154, i32 0, i32 2
  %156 = load ptr, ptr %155, align 8, !tbaa !91
  %157 = call ptr @NETSCAPE_SPKI_b64_decode(ptr noundef %156, i32 noundef -1)
  store ptr %157, ptr %53, align 8, !tbaa !82
  %158 = load ptr, ptr %53, align 8, !tbaa !82
  %159 = icmp eq ptr %158, null
  br i1 %159, label %160, label %163

160:                                              ; preds = %153
  %161 = load ptr, ptr @bio_err, align 8, !tbaa !19
  %162 = call i32 (ptr, ptr, ...) @BIO_printf(ptr noundef %161, ptr noundef @.str.314)
  br label %236

163:                                              ; preds = %153
  br label %164

164:                                              ; preds = %163, %149
  br label %175

165:                                              ; preds = %142
  %166 = load ptr, ptr %57, align 8, !tbaa !84
  %167 = load i32, ptr %63, align 4, !tbaa !4
  %168 = load i64, ptr %35, align 8, !tbaa !33
  %169 = trunc i64 %168 to i32
  %170 = load ptr, ptr %55, align 8, !tbaa !31
  %171 = call i32 @X509_NAME_add_entry_by_NID(ptr noundef %166, i32 noundef %167, i32 noundef %169, ptr noundef %170, i32 noundef -1, i32 noundef -1, i32 noundef 0)
  %172 = icmp ne i32 %171, 0
  br i1 %172, label %174, label %173

173:                                              ; preds = %165
  br label %236

174:                                              ; preds = %165
  br label %175

175:                                              ; preds = %174, %164
  %176 = load i32, ptr %60, align 4, !tbaa !4
  %177 = add nsw i32 %176, 1
  store i32 %177, ptr %60, align 4, !tbaa !4
  br label %92

178:                                              ; preds = %98
  %179 = load ptr, ptr %53, align 8, !tbaa !82
  %180 = icmp eq ptr %179, null
  br i1 %180, label %181, label %185

181:                                              ; preds = %178
  %182 = load ptr, ptr @bio_err, align 8, !tbaa !19
  %183 = load ptr, ptr %26, align 8, !tbaa !31
  %184 = call i32 (ptr, ptr, ...) @BIO_printf(ptr noundef %182, ptr noundef @.str.315, ptr noundef %183)
  br label %236

185:                                              ; preds = %178
  %186 = load ptr, ptr @bio_err, align 8, !tbaa !19
  %187 = call i32 (ptr, ptr, ...) @BIO_printf(ptr noundef %186, ptr noundef @.str.316)
  %188 = load ptr, ptr %53, align 8, !tbaa !82
  %189 = call ptr @NETSCAPE_SPKI_get_pubkey(ptr noundef %188)
  store ptr %189, ptr %56, align 8, !tbaa !17
  %190 = icmp eq ptr %189, null
  br i1 %190, label %191, label %194

191:                                              ; preds = %185
  %192 = load ptr, ptr @bio_err, align 8, !tbaa !19
  %193 = call i32 (ptr, ptr, ...) @BIO_printf(ptr noundef %192, ptr noundef @.str.317)
  br label %236

194:                                              ; preds = %185
  %195 = load ptr, ptr %53, align 8, !tbaa !82
  %196 = load ptr, ptr %56, align 8, !tbaa !17
  %197 = call i32 @NETSCAPE_SPKI_verify(ptr noundef %195, ptr noundef %196)
  store i32 %197, ptr %61, align 4, !tbaa !4
  %198 = load i32, ptr %61, align 4, !tbaa !4
  %199 = icmp sle i32 %198, 0
  br i1 %199, label %200, label %204

200:                                              ; preds = %194
  %201 = load ptr, ptr %56, align 8, !tbaa !17
  call void @EVP_PKEY_free(ptr noundef %201)
  %202 = load ptr, ptr @bio_err, align 8, !tbaa !19
  %203 = call i32 (ptr, ptr, ...) @BIO_printf(ptr noundef %202, ptr noundef @.str.318)
  br label %236

204:                                              ; preds = %194
  %205 = load ptr, ptr @bio_err, align 8, !tbaa !19
  %206 = call i32 (ptr, ptr, ...) @BIO_printf(ptr noundef %205, ptr noundef @.str.245)
  %207 = load ptr, ptr %51, align 8, !tbaa !79
  %208 = load ptr, ptr %56, align 8, !tbaa !17
  %209 = call i32 @X509_REQ_set_pubkey(ptr noundef %207, ptr noundef %208)
  %210 = load ptr, ptr %56, align 8, !tbaa !17
  call void @EVP_PKEY_free(ptr noundef %210)
  %211 = load ptr, ptr %25, align 8, !tbaa !75
  %212 = load ptr, ptr %27, align 8, !tbaa !17
  %213 = load ptr, ptr %28, align 8, !tbaa !35
  %214 = load ptr, ptr %29, align 8, !tbaa !31
  %215 = load ptr, ptr %30, align 8, !tbaa !25
  %216 = load ptr, ptr %31, align 8, !tbaa !23
  %217 = load ptr, ptr %32, align 8, !tbaa !21
  %218 = load ptr, ptr %33, align 8, !tbaa !15
  %219 = load ptr, ptr %34, align 8, !tbaa !31
  %220 = load i64, ptr %35, align 8, !tbaa !33
  %221 = load i32, ptr %36, align 4, !tbaa !4
  %222 = load i32, ptr %37, align 4, !tbaa !4
  %223 = load ptr, ptr %38, align 8, !tbaa !31
  %224 = load ptr, ptr %39, align 8, !tbaa !31
  %225 = load i64, ptr %40, align 8, !tbaa !33
  %226 = load i32, ptr %43, align 4, !tbaa !4
  %227 = load ptr, ptr %51, align 8, !tbaa !79
  %228 = load ptr, ptr %41, align 8, !tbaa !31
  %229 = load ptr, ptr %42, align 8, !tbaa !11
  %230 = load i64, ptr %44, align 8, !tbaa !33
  %231 = load i64, ptr %45, align 8, !tbaa !33
  %232 = load i32, ptr %46, align 4, !tbaa !4
  %233 = load i32, ptr %47, align 4, !tbaa !4
  %234 = load i64, ptr %48, align 8, !tbaa !33
  %235 = call i32 @do_body(ptr noundef %211, ptr noundef %212, ptr noundef %213, ptr noundef %214, ptr noundef %215, ptr noundef %216, ptr noundef %217, ptr noundef %218, ptr noundef %219, i64 noundef %220, i32 noundef %221, i32 noundef %222, ptr noundef %223, ptr noundef %224, i64 noundef %225, i32 noundef 1, i32 noundef %226, ptr noundef %227, ptr noundef %228, ptr noundef %229, i64 noundef %230, i64 noundef %231, i32 noundef %232, i32 noundef %233, i32 noundef 0, i64 noundef %234)
  store i32 %235, ptr %59, align 4, !tbaa !4
  br label %236

236:                                              ; preds = %204, %200, %191, %181, %173, %160, %88, %80, %68
  %237 = load ptr, ptr %51, align 8, !tbaa !79
  call void @X509_REQ_free(ptr noundef %237)
  %238 = load ptr, ptr %50, align 8, !tbaa !77
  call void @CONF_free(ptr noundef %238)
  %239 = load ptr, ptr %53, align 8, !tbaa !82
  call void @NETSCAPE_SPKI_free(ptr noundef %239)
  %240 = load ptr, ptr %58, align 8, !tbaa !86
  call void @X509_NAME_ENTRY_free(ptr noundef %240)
  %241 = load i32, ptr %59, align 4, !tbaa !4
  call void @llvm.lifetime.end.p0(i64 4, ptr %63) #10
  call void @llvm.lifetime.end.p0(i64 8, ptr %62) #10
  call void @llvm.lifetime.end.p0(i64 4, ptr %61) #10
  call void @llvm.lifetime.end.p0(i64 4, ptr %60) #10
  call void @llvm.lifetime.end.p0(i64 4, ptr %59) #10
  call void @llvm.lifetime.end.p0(i64 8, ptr %58) #10
  call void @llvm.lifetime.end.p0(i64 8, ptr %57) #10
  call void @llvm.lifetime.end.p0(i64 8, ptr %56) #10
  call void @llvm.lifetime.end.p0(i64 8, ptr %55) #10
  call void @llvm.lifetime.end.p0(i64 8, ptr %54) #10
  call void @llvm.lifetime.end.p0(i64 8, ptr %53) #10
  call void @llvm.lifetime.end.p0(i64 8, ptr %52) #10
  call void @llvm.lifetime.end.p0(i64 8, ptr %51) #10
  call void @llvm.lifetime.end.p0(i64 8, ptr %50) #10
  call void @llvm.lifetime.end.p0(i64 8, ptr %49) #10
  ret i32 %241
}