; Function Attrs: nounwind uwtable
define internal fastcc noundef i32 @certify_spkac(ptr noundef nonnull writeonly captures(none) %0, ptr noundef nonnull %1, ptr noundef nonnull %2, ptr noundef %3, ptr noundef %4, ptr noundef %5, ptr noundef nonnull %6, ptr noundef nonnull readonly captures(none) %7, ptr noundef %8, ptr noundef %9, i64 noundef range(i64 4096, 4098) %10, i32 noundef range(i32 0, 2) %11, ptr noundef %12, ptr noundef %13, i64 noundef %14, ptr noundef %15, ptr noundef nonnull %16, i32 noundef range(i32 0, 2) %17, i64 noundef %18, i64 noundef %19, i32 noundef range(i32 0, 2) %20, i32 noundef %21, i64 noundef %22) unnamed_addr #0 {
  %24 = alloca i64, align 8
  call void @llvm.lifetime.start.p0(i64 8, ptr nonnull %24) #12
  %25 = call ptr @CONF_load(ptr noundef null, ptr noundef nonnull %1, ptr noundef nonnull %24) #12
  %26 = icmp eq ptr %25, null
  br i1 %26, label %27, label %31

27:                                               ; preds = %23
  %28 = load ptr, ptr @bio_err, align 8, !tbaa !19
  %29 = load i64, ptr %24, align 8, !tbaa !13
  %30 = call i32 (ptr, ptr, ...) @BIO_printf(ptr noundef %28, ptr noundef nonnull @.str.311, i64 noundef %29, ptr noundef nonnull %1) #12
  br label %.loopexit87

31:                                               ; preds = %23
  %32 = call ptr @CONF_get_section(ptr noundef nonnull %25, ptr noundef nonnull @.str.181) #12
  %33 = call i32 @OPENSSL_sk_num(ptr noundef %32) #12
  %34 = icmp eq i32 %33, 0
  br i1 %34, label %35, label %38

35:                                               ; preds = %31
  %36 = load ptr, ptr @bio_err, align 8, !tbaa !19
  %37 = call i32 (ptr, ptr, ...) @BIO_printf(ptr noundef %36, ptr noundef nonnull @.str.312, ptr noundef nonnull %1) #12
  br label %.loopexit87

38:                                               ; preds = %31
  %39 = call ptr @X509_REQ_new() #12
  %40 = icmp eq ptr %39, null
  br i1 %40, label %.loopexit87, label %41

41:                                               ; preds = %38
  %42 = call ptr @X509_REQ_get_subject_name(ptr noundef nonnull %39) #12
  %43 = call i32 @OPENSSL_sk_num(ptr noundef %32) #12
  %.not91 = icmp sgt i32 %43, 0
  br i1 %.not91, label %.lr.ph, label %._crit_edge.thread

.lr.ph:                                           ; preds = %41
  %44 = trunc nuw nsw i64 %10 to i32
  br label %45

45:                                               ; preds = %.lr.ph, %72
  %.093 = phi i32 [ 0, %.lr.ph ], [ %73, %72 ]
  %.192 = phi ptr [ null, %.lr.ph ], [ %.2, %72 ]
  %46 = call ptr @OPENSSL_sk_value(ptr noundef %32, i32 noundef %.093) #12
  %47 = getelementptr inbounds nuw i8, ptr %46, i64 8
  %48 = load ptr, ptr %47, align 8, !tbaa !54
  br label %49

49:                                               ; preds = %54, %45
  %.072 = phi ptr [ %48, %45 ], [ %55, %54 ]
  %50 = load i8, ptr %.072, align 1, !tbaa !23
  switch i8 %50, label %54 [
    i8 0, label %.loopexit
    i8 58, label %51
    i8 44, label %51
    i8 46, label %51
  ]

51:                                               ; preds = %49, %49, %49
  %52 = getelementptr inbounds nuw i8, ptr %.072, i64 1
  %53 = load i8, ptr %52, align 1, !tbaa !23
  %.not85 = icmp eq i8 %53, 0
  %spec.select = select i1 %.not85, ptr %48, ptr %52
  br label %.loopexit

54:                                               ; preds = %49
  %55 = getelementptr inbounds nuw i8, ptr %.072, i64 1
  br label %49, !llvm.loop !56

.loopexit:                                        ; preds = %49, %51
  %.073 = phi ptr [ %spec.select, %51 ], [ %48, %49 ]
  %56 = getelementptr inbounds nuw i8, ptr %46, i64 16
  %57 = load ptr, ptr %56, align 8, !tbaa !57
  %58 = call i32 @OBJ_txt2nid(ptr noundef %.073) #12
  %59 = icmp eq i32 %58, 0
  br i1 %59, label %60, label %70

60:                                               ; preds = %.loopexit
  %61 = call i32 @strcmp(ptr noundef nonnull dereferenceable(1) %.073, ptr noundef nonnull dereferenceable(6) @.str.313) #13
  %62 = icmp eq i32 %61, 0
  br i1 %62, label %63, label %72

63:                                               ; preds = %60
  %64 = load ptr, ptr %56, align 8, !tbaa !57
  %65 = call ptr @NETSCAPE_SPKI_b64_decode(ptr noundef %64, i32 noundef -1) #12
  %66 = icmp eq ptr %65, null
  br i1 %66, label %67, label %72

67:                                               ; preds = %63
  %68 = load ptr, ptr @bio_err, align 8, !tbaa !19
  %69 = call i32 (ptr, ptr, ...) @BIO_printf(ptr noundef %68, ptr noundef nonnull @.str.314) #12
  br label %.loopexit87

70:                                               ; preds = %.loopexit
  %71 = call i32 @X509_NAME_add_entry_by_NID(ptr noundef %42, i32 noundef %58, i32 noundef %44, ptr noundef %57, i32 noundef -1, i32 noundef -1, i32 noundef 0) #12
  %.not86 = icmp eq i32 %71, 0
  br i1 %.not86, label %.loopexit87, label %72

72:                                               ; preds = %70, %60, %63
  %.2 = phi ptr [ %65, %63 ], [ %.192, %60 ], [ %.192, %70 ]
  %73 = add nuw nsw i32 %.093, 1
  %74 = call i32 @OPENSSL_sk_num(ptr noundef %32) #12
  %.not = icmp sgt i32 %74, %73
  br i1 %.not, label %45, label %._crit_edge

._crit_edge:                                      ; preds = %72
  %75 = icmp eq ptr %.2, null
  br i1 %75, label %._crit_edge.thread, label %78

._crit_edge.thread:                               ; preds = %41, %._crit_edge
  %76 = load ptr, ptr @bio_err, align 8, !tbaa !19
  %77 = call i32 (ptr, ptr, ...) @BIO_printf(ptr noundef %76, ptr noundef nonnull @.str.315, ptr noundef nonnull %1) #12
  br label %.loopexit87

78:                                               ; preds = %._crit_edge
  %79 = load ptr, ptr @bio_err, align 8, !tbaa !19
  %80 = call i32 (ptr, ptr, ...) @BIO_printf(ptr noundef %79, ptr noundef nonnull @.str.316) #12
  %81 = call ptr @NETSCAPE_SPKI_get_pubkey(ptr noundef nonnull %.2) #12
  %82 = icmp eq ptr %81, null
  br i1 %82, label %83, label %86

83:                                               ; preds = %78
  %84 = load ptr, ptr @bio_err, align 8, !tbaa !19
  %85 = call i32 (ptr, ptr, ...) @BIO_printf(ptr noundef %84, ptr noundef nonnull @.str.317) #12
  br label %.loopexit87

86:                                               ; preds = %78
  %87 = call i32 @NETSCAPE_SPKI_verify(ptr noundef nonnull %.2, ptr noundef nonnull %81) #12
  %88 = icmp slt i32 %87, 1
  br i1 %88, label %89, label %92

89:                                               ; preds = %86
  call void @EVP_PKEY_free(ptr noundef nonnull %81) #12
  %90 = load ptr, ptr @bio_err, align 8, !tbaa !19
  %91 = call i32 (ptr, ptr, ...) @BIO_printf(ptr noundef %90, ptr noundef nonnull @.str.318) #12
  br label %.loopexit87

92:                                               ; preds = %86
  %93 = load ptr, ptr @bio_err, align 8, !tbaa !19
  %94 = call i32 (ptr, ptr, ...) @BIO_printf(ptr noundef %93, ptr noundef nonnull @.str.245) #12
  %95 = call i32 @X509_REQ_set_pubkey(ptr noundef nonnull %39, ptr noundef nonnull %81) #12
  call void @EVP_PKEY_free(ptr noundef nonnull %81) #12
  %96 = call fastcc i32 @do_body(ptr noundef %0, ptr noundef %2, ptr noundef %3, ptr noundef %4, ptr noundef %5, ptr noundef %6, ptr noundef %7, ptr noundef %8, ptr noundef %9, i64 noundef %10, i32 noundef %11, ptr noundef %12, ptr noundef %13, i64 noundef %14, i32 noundef 1, i32 noundef %17, ptr noundef %39, ptr noundef %15, ptr noundef %16, i64 noundef %18, i64 noundef %19, i32 noundef %20, i32 noundef %21, i32 noundef 0, i64 noundef %22)
  br label %.loopexit87

.loopexit87:                                      ; preds = %70, %38, %92, %89, %83, %._crit_edge.thread, %67, %35, %27
  %.074 = phi ptr [ null, %27 ], [ null, %35 ], [ null, %38 ], [ null, %._crit_edge.thread ], [ %.2, %83 ], [ %.2, %89 ], [ %.2, %92 ], [ null, %67 ], [ %.192, %70 ]
  %.071 = phi ptr [ null, %27 ], [ null, %35 ], [ null, %38 ], [ %39, %._crit_edge.thread ], [ %39, %83 ], [ %39, %89 ], [ %39, %92 ], [ %39, %67 ], [ %39, %70 ]
  %.070 = phi i32 [ -1, %27 ], [ -1, %35 ], [ -1, %38 ], [ -1, %._crit_edge.thread ], [ -1, %83 ], [ -1, %89 ], [ %96, %92 ], [ -1, %67 ], [ -1, %70 ]
  call void @X509_REQ_free(ptr noundef %.071) #12
  call void @CONF_free(ptr noundef %25) #12
  call void @NETSCAPE_SPKI_free(ptr noundef %.074) #12
  call void @X509_NAME_ENTRY_free(ptr noundef null) #12
  call void @llvm.lifetime.end.p0(i64 8, ptr nonnull %24) #12
  ret i32 %.070
}